; Function Attrs: mustprogress uwtable
define void @_ZN8QuantLib22InterestRateVolSurfaceC2EN5boost10shared_ptrINS_17InterestRateIndexEEEjRKNS_8CalendarENS_21BusinessDayConventionERKNS_10DayCounterE(ptr noundef nonnull align 8 dereferenceable(88) %this, ptr noundef %vtt, ptr nocapture noundef %index, i32 noundef %settlDays, ptr noundef nonnull align 8 dereferenceable(16) %cal, i32 noundef %bdc, ptr noundef nonnull align 8 dereferenceable(16) %dc) unnamed_addr #5 align 2 {
entry:
  %0 = getelementptr inbounds i8, ptr %vtt, i64 8
  tail call void @_ZN8QuantLib15BlackVolSurfaceC2EjRKNS_8CalendarENS_21BusinessDayConventionERKNS_10DayCounterE(ptr noundef nonnull align 8 dereferenceable(68) %this, ptr noundef nonnull %0, i32 noundef %settlDays, ptr noundef nonnull align 8 dereferenceable(16) %cal, i32 noundef %bdc, ptr noundef nonnull align 8 dereferenceable(16) %dc)
  %1 = load ptr, ptr %vtt, align 8
  store ptr %1, ptr %this, align 8, !tbaa !29
  %2 = getelementptr inbounds i8, ptr %vtt, i64 104
  %3 = load ptr, ptr %2, align 8
  %vbase.offset.ptr = getelementptr i8, ptr %1, i64 -24
  %vbase.offset = load i64, ptr %vbase.offset.ptr, align 8
  %add.ptr = getelementptr inbounds i8, ptr %this, i64 %vbase.offset
  store ptr %3, ptr %add.ptr, align 8, !tbaa !29
  %4 = getelementptr inbounds i8, ptr %vtt, i64 112
  %5 = load ptr, ptr %4, align 8
  %vtable3 = load ptr, ptr %this, align 8, !tbaa !29
  %vbase.offset.ptr4 = getelementptr i8, ptr %vtable3, i64 -32
  %vbase.offset5 = load i64, ptr %vbase.offset.ptr4, align 8
  %add.ptr6 = getelementptr inbounds i8, ptr %this, i64 %vbase.offset5
  store ptr %5, ptr %add.ptr6, align 8, !tbaa !29
  %index_ = getelementptr inbounds nuw i8, ptr %this, i64 72
  %6 = load ptr, ptr %index, align 8, !tbaa !31
  store ptr %6, ptr %index_, align 8, !tbaa !31
  %pn.i = getelementptr inbounds nuw i8, ptr %this, i64 80
  %pn3.i = getelementptr inbounds nuw i8, ptr %index, i64 8
  %7 = load ptr, ptr %pn3.i, align 8, !tbaa !9
  store ptr %7, ptr %pn.i, align 8, !tbaa !9
  tail call void @llvm.memset.p0.i64(ptr noundef nonnull align 8 dereferenceable(16) %index, i8 0, i64 16, i1 false)
  ret void
}